target datalayout = "e-m:e-p270:32:32-p271:32:32-p272:64:64-i64:64-i128:128-f80:128-n8:16:32:64-S128"
target triple = "x86_64-pc-linux-gnu"

@tcg_env = external global ptr, align 8

; Function Attrs: nounwind sspstrong uwtable
define internal void @expand_4i_vec(i32 noundef %0, i32 noundef %1, i32 noundef %2, i32 noundef %3, i32 noundef %4, i32 noundef %5, i32 noundef %6, i32 noundef %7, i64 noundef %8, ptr noundef %9) #0 {
  %11 = alloca i32, align 4
  %12 = alloca i32, align 4
  %13 = alloca i32, align 4
  %14 = alloca i32, align 4
  %15 = alloca i32, align 4
  %16 = alloca i32, align 4
  %17 = alloca i32, align 4
  %18 = alloca i32, align 4
  %19 = alloca i64, align 8
  %20 = alloca ptr, align 8
  %21 = alloca i32, align 4
  %22 = alloca ptr, align 8
  %23 = alloca ptr, align 8
  %24 = alloca ptr, align 8
  %25 = alloca ptr, align 8
  store i32 %0, ptr %11, align 4
  store i32 %1, ptr %12, align 4
  store i32 %2, ptr %13, align 4
  store i32 %3, ptr %14, align 4
  store i32 %4, ptr %15, align 4
  store i32 %5, ptr %16, align 4
  store i32 %6, ptr %17, align 4
  store i32 %7, ptr %18, align 4
  store i64 %8, ptr %19, align 8
  store ptr %9, ptr %20, align 8
  call void @llvm.lifetime.start.p0(i64 4, ptr %21) #10
  store i32 0, ptr %21, align 4
  br label %26

26:                                               ; preds = %71, %10
  %27 = load i32, ptr %21, align 4
  %28 = load i32, ptr %16, align 4
  %29 = icmp ult i32 %27, %28
  br i1 %29, label %31, label %30

30:                                               ; preds = %26
  call void @llvm.lifetime.end.p0(i64 4, ptr %21) #10
  br label %75

31:                                               ; preds = %26
  call void @llvm.lifetime.start.p0(i64 8, ptr %22) #10
  %32 = load i32, ptr %18, align 4
  %33 = call ptr @tcg_temp_new_vec(i32 noundef %32)
  store ptr %33, ptr %22, align 8
  call void @llvm.lifetime.start.p0(i64 8, ptr %23) #10
  %34 = load i32, ptr %18, align 4
  %35 = call ptr @tcg_temp_new_vec(i32 noundef %34)
  store ptr %35, ptr %23, align 8
  call void @llvm.lifetime.start.p0(i64 8, ptr %24) #10
  %36 = load i32, ptr %18, align 4
  %37 = call ptr @tcg_temp_new_vec(i32 noundef %36)
  store ptr %37, ptr %24, align 8
  call void @llvm.lifetime.start.p0(i64 8, ptr %25) #10
  %38 = load i32, ptr %18, align 4
  %39 = call ptr @tcg_temp_new_vec(i32 noundef %38)
  store ptr %39, ptr %25, align 8
  %40 = load ptr, ptr %23, align 8
  %41 = load ptr, ptr @tcg_env, align 8
  %42 = load i32, ptr %13, align 4
  %43 = load i32, ptr %21, align 4
  %44 = add i32 %42, %43
  %45 = zext i32 %44 to i64
  call void @tcg_gen_ld_vec(ptr noundef %40, ptr noundef %41, i64 noundef %45)
  %46 = load ptr, ptr %24, align 8
  %47 = load ptr, ptr @tcg_env, align 8
  %48 = load i32, ptr %14, align 4
  %49 = load i32, ptr %21, align 4
  %50 = add i32 %48, %49
  %51 = zext i32 %50 to i64
  call void @tcg_gen_ld_vec(ptr noundef %46, ptr noundef %47, i64 noundef %51)
  %52 = load ptr, ptr %25, align 8
  %53 = load ptr, ptr @tcg_env, align 8
  %54 = load i32, ptr %15, align 4
  %55 = load i32, ptr %21, align 4
  %56 = add i32 %54, %55
  %57 = zext i32 %56 to i64
  call void @tcg_gen_ld_vec(ptr noundef %52, ptr noundef %53, i64 noundef %57)
  %58 = load ptr, ptr %20, align 8
  %59 = load i32, ptr %11, align 4
  %60 = load ptr, ptr %22, align 8
  %61 = load ptr, ptr %23, align 8
  %62 = load ptr, ptr %24, align 8
  %63 = load ptr, ptr %25, align 8
  %64 = load i64, ptr %19, align 8
  call void %58(i32 noundef %59, ptr noundef %60, ptr noundef %61, ptr noundef %62, ptr noundef %63, i64 noundef %64)
  %65 = load ptr, ptr %22, align 8
  %66 = load ptr, ptr @tcg_env, align 8
  %67 = load i32, ptr %12, align 4
  %68 = load i32, ptr %21, align 4
  %69 = add i32 %67, %68
  %70 = zext i32 %69 to i64
  call void @tcg_gen_st_vec(ptr noundef %65, ptr noundef %66, i64 noundef %70)
  call void @llvm.lifetime.end.p0(i64 8, ptr %25) #10
  call void @llvm.lifetime.end.p0(i64 8, ptr %24) #10
  call void @llvm.lifetime.end.p0(i64 8, ptr %23) #10
  call void @llvm.lifetime.end.p0(i64 8, ptr %22) #10
  br label %71

71:                                               ; preds = %31
  %72 = load i32, ptr %17, align 4
  %73 = load i32, ptr %21, align 4
  %74 = add i32 %73, %72
  store i32 %74, ptr %21, align 4
  br label %26, !llvm.loop !26

75:                                               ; preds = %30
  ret void
}