; Function Attrs: nounwind sspstrong uwtable
define internal fastcc void @expand_4i_vec(i32 noundef range(i32 0, 256) %0, i32 noundef %1, i32 noundef %2, i32 noundef %3, i32 noundef %4, i32 noundef %5, i32 noundef range(i32 8, 33) %6, i32 noundef range(i32 3, 6) %7, i64 noundef %8, ptr noundef readonly captures(none) %9) unnamed_addr #2 {
  %.not = icmp eq i32 %5, 0
  br i1 %.not, label %._crit_edge, label %.lr.ph

._crit_edge:                                      ; preds = %.lr.ph, %10
  ret void

.lr.ph:                                           ; preds = %10, %.lr.ph
  %.026 = phi i32 [ %27, %.lr.ph ], [ 0, %10 ]
  %11 = tail call ptr @tcg_temp_new_vec(i32 noundef %7) #10
  %12 = tail call ptr @tcg_temp_new_vec(i32 noundef %7) #10
  %13 = tail call ptr @tcg_temp_new_vec(i32 noundef %7) #10
  %14 = tail call ptr @tcg_temp_new_vec(i32 noundef %7) #10
  %15 = load ptr, ptr @tcg_env, align 8
  %16 = add i32 %.026, %2
  %17 = zext i32 %16 to i64
  tail call void @tcg_gen_ld_vec(ptr noundef %12, ptr noundef %15, i64 noundef %17) #10
  %18 = load ptr, ptr @tcg_env, align 8
  %19 = add i32 %.026, %3
  %20 = zext i32 %19 to i64
  tail call void @tcg_gen_ld_vec(ptr noundef %13, ptr noundef %18, i64 noundef %20) #10
  %21 = load ptr, ptr @tcg_env, align 8
  %22 = add i32 %.026, %4
  %23 = zext i32 %22 to i64
  tail call void @tcg_gen_ld_vec(ptr noundef %14, ptr noundef %21, i64 noundef %23) #10
  tail call void %9(i32 noundef %0, ptr noundef %11, ptr noundef %12, ptr noundef %13, ptr noundef %14, i64 noundef %8) #10
  %24 = load ptr, ptr @tcg_env, align 8
  %25 = add i32 %.026, %1
  %26 = zext i32 %25 to i64
  tail call void @tcg_gen_st_vec(ptr noundef %11, ptr noundef %24, i64 noundef %26) #10
  %27 = add i32 %.026, %6
  %28 = icmp ult i32 %27, %5
  br i1 %28, label %.lr.ph, label %._crit_edge, !llvm.loop !27
}